; ModuleID = '21/915.c'
source_filename = "21/915.c"
target datalayout = "e-m:e-p270:32:32-p271:32:32-p272:64:64-i64:64-f80:128-n8:16:32:64-S128"
target triple = "x86_64-pc-linux-gnu"

@.str = private unnamed_addr constant [3 x i8] c"%d\00", align 1
@.str.1 = private unnamed_addr constant [4 x i8] c",%d\00", align 1

; Function Attrs: noinline nounwind uwtable
define dso_local i32 @main() #0 {
  %1 = alloca i32, align 4
  %2 = alloca i32, align 4
  %3 = alloca i32, align 4
  %4 = alloca i32, align 4
  %5 = alloca i32, align 4
  %6 = alloca i32, align 4
  %7 = alloca [301 x i32], align 16
  %8 = alloca [301 x i32], align 16
  %9 = alloca float, align 4
  %10 = alloca float, align 4
  store i32 0, i32* %1, align 4
  store i32 0, i32* %5, align 4
  store float 0.000000e+00, float* %9, align 4
  store float 0.000000e+00, float* %10, align 4
  %11 = call i32 (i8*, ...) @__isoc99_scanf(i8* getelementptr inbounds ([3 x i8], [3 x i8]* @.str, i64 0, i64 0), i32* %6)
  store i32 0, i32* %2, align 4
  br label %12

12:                                               ; preds = %28, %0
  %13 = load i32, i32* %2, align 4
  %14 = load i32, i32* %6, align 4
  %15 = icmp slt i32 %13, %14
  br i1 %15, label %16, label %31

16:                                               ; preds = %12
  %17 = load i32, i32* %2, align 4
  %18 = sext i32 %17 to i64
  %19 = getelementptr inbounds [301 x i32], [301 x i32]* %7, i64 0, i64 %18
  %20 = call i32 (i8*, ...) @__isoc99_scanf(i8* getelementptr inbounds ([3 x i8], [3 x i8]* @.str, i64 0, i64 0), i32* %19)
  %21 = load i32, i32* %2, align 4
  %22 = sext i32 %21 to i64
  %23 = getelementptr inbounds [301 x i32], [301 x i32]* %7, i64 0, i64 %22
  %24 = load i32, i32* %23, align 4
  %25 = sitofp i32 %24 to float
  %26 = load float, float* %9, align 4
  %27 = fadd float %25, %26
  store float %27, float* %9, align 4
  br label %28

28:                                               ; preds = %16
  %29 = load i32, i32* %2, align 4
  %30 = add nsw i32 %29, 1
  store i32 %30, i32* %2, align 4
  br label %12

31:                                               ; preds = %12
  %32 = load float, float* %9, align 4
  %33 = load i32, i32* %6, align 4
  %34 = sitofp i32 %33 to float
  %35 = fdiv float %32, %34
  store float %35, float* %9, align 4
  store i32 0, i32* %2, align 4
  br label %36

36:                                               ; preds = %65, %31
  %37 = load i32, i32* %2, align 4
  %38 = load i32, i32* %6, align 4
  %39 = icmp slt i32 %37, %38
  br i1 %39, label %40, label %68

40:                                               ; preds = %36
  %41 = load float, float* %9, align 4
  %42 = load i32, i32* %2, align 4
  %43 = sext i32 %42 to i64
  %44 = getelementptr inbounds [301 x i32], [301 x i32]* %7, i64 0, i64 %43
  %45 = load i32, i32* %44, align 4
  %46 = sitofp i32 %45 to float
  %47 = fsub float %41, %46
  %48 = fpext float %47 to double
  %49 = call double @llvm.fabs.f64(double %48)
  %50 = load float, float* %10, align 4
  %51 = fpext float %50 to double
  %52 = fcmp ogt double %49, %51
  br i1 %52, label %53, label %64

53:                                               ; preds = %40
  %54 = load float, float* %9, align 4
  %55 = load i32, i32* %2, align 4
  %56 = sext i32 %55 to i64
  %57 = getelementptr inbounds [301 x i32], [301 x i32]* %7, i64 0, i64 %56
  %58 = load i32, i32* %57, align 4
  %59 = sitofp i32 %58 to float
  %60 = fsub float %54, %59
  %61 = fpext float %60 to double
  %62 = call double @llvm.fabs.f64(double %61)
  %63 = fptrunc double %62 to float
  store float %63, float* %10, align 4
  br label %64

64:                                               ; preds = %53, %40
  br label %65

65:                                               ; preds = %64
  %66 = load i32, i32* %2, align 4
  %67 = add nsw i32 %66, 1
  store i32 %67, i32* %2, align 4
  br label %36

68:                                               ; preds = %36
  store i32 0, i32* %2, align 4
  store i32 0, i32* %3, align 4
  br label %69

69:                                               ; preds = %98, %68
  %70 = load i32, i32* %2, align 4
  %71 = load i32, i32* %6, align 4
  %72 = icmp slt i32 %70, %71
  br i1 %72, label %73, label %101

73:                                               ; preds = %69
  %74 = load float, float* %9, align 4
  %75 = load i32, i32* %2, align 4
  %76 = sext i32 %75 to i64
  %77 = getelementptr inbounds [301 x i32], [301 x i32]* %7, i64 0, i64 %76
  %78 = load i32, i32* %77, align 4
  %79 = sitofp i32 %78 to float
  %80 = fsub float %74, %79
  %81 = fpext float %80 to double
  %82 = call double @llvm.fabs.f64(double %81)
  %83 = load float, float* %10, align 4
  %84 = fpext float %83 to double
  %85 = fsub double %84, 1.000000e-02
  %86 = fcmp ogt double %82, %85
  br i1 %86, label %87, label %97

87:                                               ; preds = %73
  %88 = load i32, i32* %2, align 4
  %89 = sext i32 %88 to i64
  %90 = getelementptr inbounds [301 x i32], [301 x i32]* %7, i64 0, i64 %89
  %91 = load i32, i32* %90, align 4
  %92 = load i32, i32* %3, align 4
  %93 = sext i32 %92 to i64
  %94 = getelementptr inbounds [301 x i32], [301 x i32]* %8, i64 0, i64 %93
  store i32 %91, i32* %94, align 4
  %95 = load i32, i32* %3, align 4
  %96 = add nsw i32 %95, 1
  store i32 %96, i32* %3, align 4
  br label %97

97:                                               ; preds = %87, %73
  br label %98

98:                                               ; preds = %97
  %99 = load i32, i32* %2, align 4
  %100 = add nsw i32 %99, 1
  store i32 %100, i32* %2, align 4
  br label %69

101:                                              ; preds = %69
  %102 = load i32, i32* %3, align 4
  %103 = sub nsw i32 %102, 1
  store i32 %103, i32* %4, align 4
  store i32 1, i32* %2, align 4
  br label %104

104:                                              ; preds = %147, %101
  %105 = load i32, i32* %2, align 4
  %106 = load i32, i32* %6, align 4
  %107 = icmp sle i32 %105, %106
  br i1 %107, label %108, label %150

108:                                              ; preds = %104
  store i32 0, i32* %3, align 4
  br label %109

109:                                              ; preds = %143, %108
  %110 = load i32, i32* %3, align 4
  %111 = load i32, i32* %4, align 4
  %112 = icmp slt i32 %110, %111
  br i1 %112, label %113, label %146

113:                                              ; preds = %109
  %114 = load i32, i32* %3, align 4
  %115 = sext i32 %114 to i64
  %116 = getelementptr inbounds [301 x i32], [301 x i32]* %8, i64 0, i64 %115
  %117 = load i32, i32* %116, align 4
  %118 = load i32, i32* %3, align 4
  %119 = add nsw i32 %118, 1
  %120 = sext i32 %119 to i64
  %121 = getelementptr inbounds [301 x i32], [301 x i32]* %8, i64 0, i64 %120
  %122 = load i32, i32* %121, align 4
  %123 = icmp sgt i32 %117, %122
  br i1 %123, label %124, label %142

124:                                              ; preds = %113
  %125 = load i32, i32* %3, align 4
  %126 = sext i32 %125 to i64
  %127 = getelementptr inbounds [301 x i32], [301 x i32]* %8, i64 0, i64 %126
  %128 = load i32, i32* %127, align 4
  store i32 %128, i32* %5, align 4
  %129 = load i32, i32* %3, align 4
  %130 = add nsw i32 %129, 1
  %131 = sext i32 %130 to i64
  %132 = getelementptr inbounds [301 x i32], [301 x i32]* %8, i64 0, i64 %131
  %133 = load i32, i32* %132, align 4
  %134 = load i32, i32* %3, align 4
  %135 = sext i32 %134 to i64
  %136 = getelementptr inbounds [301 x i32], [301 x i32]* %8, i64 0, i64 %135
  store i32 %133, i32* %136, align 4
  %137 = load i32, i32* %5, align 4
  %138 = load i32, i32* %3, align 4
  %139 = add nsw i32 %138, 1
  %140 = sext i32 %139 to i64
  %141 = getelementptr inbounds [301 x i32], [301 x i32]* %8, i64 0, i64 %140
  store i32 %137, i32* %141, align 4
  br label %142

142:                                              ; preds = %124, %113
  br label %143

143:                                              ; preds = %142
  %144 = load i32, i32* %3, align 4
  %145 = add nsw i32 %144, 1
  store i32 %145, i32* %3, align 4
  br label %109

146:                                              ; preds = %109
  br label %147

147:                                              ; preds = %146
  %148 = load i32, i32* %2, align 4
  %149 = add nsw i32 %148, 1
  store i32 %149, i32* %2, align 4
  br label %104

150:                                              ; preds = %104
  %151 = getelementptr inbounds [301 x i32], [301 x i32]* %8, i64 0, i64 0
  %152 = load i32, i32* %151, align 16
  %153 = call i32 (i8*, ...) @printf(i8* getelementptr inbounds ([3 x i8], [3 x i8]* @.str, i64 0, i64 0), i32 %152)
  store i32 1, i32* %2, align 4
  br label %154

154:                                              ; preds = %164, %150
  %155 = load i32, i32* %2, align 4
  %156 = load i32, i32* %4, align 4
  %157 = icmp sle i32 %155, %156
  br i1 %157, label %158, label %167

158:                                              ; preds = %154
  %159 = load i32, i32* %2, align 4
  %160 = sext i32 %159 to i64
  %161 = getelementptr inbounds [301 x i32], [301 x i32]* %8, i64 0, i64 %160
  %162 = load i32, i32* %161, align 4
  %163 = call i32 (i8*, ...) @printf(i8* getelementptr inbounds ([4 x i8], [4 x i8]* @.str.1, i64 0, i64 0), i32 %162)
  br label %164

164:                                              ; preds = %158
  %165 = load i32, i32* %2, align 4
  %166 = add nsw i32 %165, 1
  store i32 %166, i32* %2, align 4
  br label %154

167:                                              ; preds = %154
  ret i32 0
}

declare dso_local i32 @__isoc99_scanf(i8*, ...) #1

; Function Attrs: nounwind readnone speculatable willreturn
declare double @llvm.fabs.f64(double) #2

declare dso_local i32 @printf(i8*, ...) #1


!llvm.module.flags = !{!0}
!llvm.ident = !{!1}

!0 = !{i32 1, !"wchar_size", i32 4}
!1 = !{!"clang version 10.0.0-4ubuntu1 "}
